target datalayout = "e-m:e-p270:32:32-p271:32:32-p272:64:64-i64:64-i128:128-f80:128-n8:16:32:64-S128"
target triple = "x86_64-pc-linux-gnu"

%class.mpfx_manager = type <{ i32, i32, i32, [4 x i8], %class.svector, i32, i8, [3 x i8], %class.id_gen, %class.svector, %class.svector, %class.svector, %class.svector, %class.mpfx, [4 x i8] }>
%class.id_gen = type { i32, %class.svector }
%class.svector = type { %class.vector }
%class.vector = type { ptr }
%class.mpfx = type { i32 }

; Function Attrs: mustprogress nounwind uwtable
define linkonce_odr hidden noundef ptr @_ZNK6vectorIjLb0EjE4dataEv(ptr noundef nonnull align 8 dereferenceable(8) %0) #5 comdat align 2 {
  %2 = alloca ptr, align 8
  store ptr %0, ptr %2, align 8, !tbaa !30
  %3 = load ptr, ptr %2, align 8
  %4 = getelementptr inbounds nuw %class.vector, ptr %3, i32 0, i32 0
  %5 = load ptr, ptr %4, align 8, !tbaa !34
  ret ptr %5
}

; Function Attrs: mustprogress nounwind uwtable
define linkonce_odr hidden noundef zeroext i1 @_ZN12mpfx_manager6is_negERK4mpfx(ptr noundef nonnull align 4 dereferenceable(4) %0) #5 comdat align 2 {
  %2 = alloca ptr, align 8
  store ptr %0, ptr %2, align 8, !tbaa !28
  %3 = load ptr, ptr %2, align 8, !tbaa !28
  %4 = load i32, ptr %3, align 4
  %5 = and i32 %4, 1
  %6 = icmp ne i32 %5, 0
  ret i1 %6
}

; Function Attrs: mustprogress uwtable
define linkonce_odr hidden noundef ptr @_ZNK12mpfx_manager5wordsERK4mpfx(ptr noundef nonnull align 8 dereferenceable(85) %0, ptr noundef nonnull align 4 dereferenceable(4) %1) #4 comdat align 2 {
  %3 = alloca ptr, align 8
  %4 = alloca ptr, align 8
  store ptr %0, ptr %3, align 8, !tbaa !3
  store ptr %1, ptr %4, align 8, !tbaa !28
  %5 = load ptr, ptr %3, align 8
  %6 = getelementptr inbounds nuw %class.mpfx_manager, ptr %5, i32 0, i32 4
  %7 = call noundef ptr @_ZNK6vectorIjLb0EjE4dataEv(ptr noundef nonnull align 8 dereferenceable(8) %6)
  %8 = load ptr, ptr %4, align 8, !tbaa !28
  %9 = load i32, ptr %8, align 4
  %10 = lshr i32 %9, 1
  %11 = getelementptr inbounds nuw %class.mpfx_manager, ptr %5, i32 0, i32 2
  %12 = load i32, ptr %11, align 8, !tbaa !20
  %13 = mul i32 %10, %12
  %14 = zext i32 %13 to i64
  %15 = getelementptr inbounds nuw i32, ptr %7, i64 %14
  ret ptr %15
}

; Function Attrs: mustprogress nounwind uwtable
define linkonce_odr hidden noundef zeroext i1 @_ZN12mpfx_manager7is_zeroERK4mpfx(ptr noundef nonnull align 4 dereferenceable(4) %0) #5 comdat align 2 {
  %2 = alloca ptr, align 8
  store ptr %0, ptr %2, align 8, !tbaa !28
  %3 = load ptr, ptr %2, align 8, !tbaa !28
  %4 = load i32, ptr %3, align 4
  %5 = lshr i32 %4, 1
  %6 = icmp eq i32 %5, 0
  ret i1 %6
}

; Function Attrs: mustprogress uwtable
define hidden noundef zeroext i1 @_ZNK12mpfx_manager6is_intERK4mpfx(ptr noundef nonnull align 8 dereferenceable(85) %0, ptr noundef nonnull align 4 dereferenceable(4) %1) #4 align 2 {
  %3 = alloca i1, align 1
  %4 = alloca ptr, align 8
  %5 = alloca ptr, align 8
  %6 = alloca ptr, align 8
  %7 = alloca i32, align 4
  %8 = alloca i32, align 4
  store ptr %0, ptr %4, align 8, !tbaa !3
  store ptr %1, ptr %5, align 8, !tbaa !28
  %9 = load ptr, ptr %4, align 8
  call void @llvm.lifetime.start.p0(i64 8, ptr %6) #3
  %10 = load ptr, ptr %5, align 8, !tbaa !28
  %11 = call noundef ptr @_ZNK12mpfx_manager5wordsERK4mpfx(ptr noundef nonnull align 8 dereferenceable(85) %9, ptr noundef nonnull align 4 dereferenceable(4) %10)
  store ptr %11, ptr %6, align 8, !tbaa !35
  call void @llvm.lifetime.start.p0(i64 4, ptr %7) #3
  store i32 0, ptr %7, align 4, !tbaa !8
  br label %12

12:                                               ; preds = %27, %2
  %13 = load i32, ptr %7, align 4, !tbaa !8
  %14 = getelementptr inbounds nuw %class.mpfx_manager, ptr %9, i32 0, i32 1
  %15 = load i32, ptr %14, align 4, !tbaa !19
  %16 = icmp ult i32 %13, %15
  br i1 %16, label %18, label %17

17:                                               ; preds = %12
  store i32 2, ptr %8, align 4
  br label %30

18:                                               ; preds = %12
  %19 = load ptr, ptr %6, align 8, !tbaa !35
  %20 = load i32, ptr %7, align 4, !tbaa !8
  %21 = zext i32 %20 to i64
  %22 = getelementptr inbounds nuw i32, ptr %19, i64 %21
  %23 = load i32, ptr %22, align 4, !tbaa !8
  %24 = icmp ne i32 %23, 0
  br i1 %24, label %25, label %26

25:                                               ; preds = %18
  store i1 false, ptr %3, align 1
  store i32 1, ptr %8, align 4
  br label %30

26:                                               ; preds = %18
  br label %27

27:                                               ; preds = %26
  %28 = load i32, ptr %7, align 4, !tbaa !8
  %29 = add i32 %28, 1
  store i32 %29, ptr %7, align 4, !tbaa !8
  br label %12, !llvm.loop !40

30:                                               ; preds = %25, %17
  call void @llvm.lifetime.end.p0(i64 4, ptr %7) #3
  %31 = load i32, ptr %8, align 4
  switch i32 %31, label %33 [
    i32 2, label %32
  ]

32:                                               ; preds = %30
  store i1 true, ptr %3, align 1
  store i32 1, ptr %8, align 4
  br label %33

33:                                               ; preds = %32, %30
  call void @llvm.lifetime.end.p0(i64 8, ptr %6) #3
  %34 = load i1, ptr %3, align 1
  ret i1 %34
}

; Function Attrs: mustprogress uwtable
define hidden noundef zeroext i1 @_ZNK12mpfx_manager8is_int64ERK4mpfx(ptr noundef nonnull align 8 dereferenceable(85) %0, ptr noundef nonnull align 4 dereferenceable(4) %1) #4 align 2 {
  %3 = alloca i1, align 1
  %4 = alloca ptr, align 8
  %5 = alloca ptr, align 8
  %6 = alloca ptr, align 8
  %7 = alloca i32, align 4
  %8 = alloca i32, align 4
  store ptr %0, ptr %4, align 8, !tbaa !3
  store ptr %1, ptr %5, align 8, !tbaa !28
  %9 = load ptr, ptr %4, align 8
  %10 = load ptr, ptr %5, align 8, !tbaa !28
  %11 = call noundef zeroext i1 @_ZNK12mpfx_manager6is_intERK4mpfx(ptr noundef nonnull align 8 dereferenceable(85) %9, ptr noundef nonnull align 4 dereferenceable(4) %10)
  br i1 %11, label %13, label %12

12:                                               ; preds = %2
  store i1 false, ptr %3, align 1
  br label %65

13:                                               ; preds = %2
  %14 = load ptr, ptr %5, align 8, !tbaa !28
  %15 = call noundef zeroext i1 @_ZN12mpfx_manager7is_zeroERK4mpfx(ptr noundef nonnull align 4 dereferenceable(4) %14)
  br i1 %15, label %20, label %16

16:                                               ; preds = %13
  %17 = getelementptr inbounds nuw %class.mpfx_manager, ptr %9, i32 0, i32 0
  %18 = load i32, ptr %17, align 8, !tbaa !10
  %19 = icmp ule i32 %18, 1
  br i1 %19, label %20, label %21

20:                                               ; preds = %16, %13
  store i1 true, ptr %3, align 1
  br label %65

21:                                               ; preds = %16
  call void @llvm.lifetime.start.p0(i64 8, ptr %6) #3
  %22 = load ptr, ptr %5, align 8, !tbaa !28
  %23 = call noundef ptr @_ZNK12mpfx_manager5wordsERK4mpfx(ptr noundef nonnull align 8 dereferenceable(85) %9, ptr noundef nonnull align 4 dereferenceable(4) %22)
  store ptr %23, ptr %6, align 8, !tbaa !35
  %24 = getelementptr inbounds nuw %class.mpfx_manager, ptr %9, i32 0, i32 1
  %25 = load i32, ptr %24, align 4, !tbaa !19
  %26 = load ptr, ptr %6, align 8, !tbaa !35
  %27 = zext i32 %25 to i64
  %28 = getelementptr inbounds nuw i32, ptr %26, i64 %27
  store ptr %28, ptr %6, align 8, !tbaa !35
  %29 = load ptr, ptr %6, align 8, !tbaa !35
  %30 = getelementptr inbounds i32, ptr %29, i64 1
  %31 = load i32, ptr %30, align 4, !tbaa !8
  %32 = icmp ult i32 %31, -2147483648
  br i1 %32, label %41, label %33

33:                                               ; preds = %21
  %34 = load ptr, ptr %6, align 8, !tbaa !35
  %35 = getelementptr inbounds i32, ptr %34, i64 1
  %36 = load i32, ptr %35, align 4, !tbaa !8
  %37 = icmp eq i32 %36, -2147483648
  br i1 %37, label %38, label %63

38:                                               ; preds = %33
  %39 = load ptr, ptr %5, align 8, !tbaa !28
  %40 = call noundef zeroext i1 @_ZN12mpfx_manager6is_negERK4mpfx(ptr noundef nonnull align 4 dereferenceable(4) %39)
  br i1 %40, label %41, label %63

41:                                               ; preds = %38, %21
  call void @llvm.lifetime.start.p0(i64 4, ptr %7) #3
  store i32 2, ptr %7, align 4, !tbaa !8
  br label %42

42:                                               ; preds = %57, %41
  %43 = load i32, ptr %7, align 4, !tbaa !8
  %44 = getelementptr inbounds nuw %class.mpfx_manager, ptr %9, i32 0, i32 0
  %45 = load i32, ptr %44, align 8, !tbaa !10
  %46 = icmp ult i32 %43, %45
  br i1 %46, label %48, label %47

47:                                               ; preds = %42
  store i32 2, ptr %8, align 4
  br label %60

48:                                               ; preds = %42
  %49 = load ptr, ptr %6, align 8, !tbaa !35
  %50 = load i32, ptr %7, align 4, !tbaa !8
  %51 = zext i32 %50 to i64
  %52 = getelementptr inbounds nuw i32, ptr %49, i64 %51
  %53 = load i32, ptr %52, align 4, !tbaa !8
  %54 = icmp ne i32 %53, 0
  br i1 %54, label %55, label %56

55:                                               ; preds = %48
  store i1 false, ptr %3, align 1
  store i32 1, ptr %8, align 4
  br label %60

56:                                               ; preds = %48
  br label %57

57:                                               ; preds = %56
  %58 = load i32, ptr %7, align 4, !tbaa !8
  %59 = add i32 %58, 1
  store i32 %59, ptr %7, align 4, !tbaa !8
  br label %42, !llvm.loop !41

60:                                               ; preds = %55, %47
  call void @llvm.lifetime.end.p0(i64 4, ptr %7) #3
  %61 = load i32, ptr %8, align 4
  switch i32 %61, label %64 [
    i32 2, label %62
  ]

62:                                               ; preds = %60
  store i1 true, ptr %3, align 1
  store i32 1, ptr %8, align 4
  br label %64

63:                                               ; preds = %38, %33
  store i1 false, ptr %3, align 1
  store i32 1, ptr %8, align 4
  br label %64

64:                                               ; preds = %63, %62, %60
  call void @llvm.lifetime.end.p0(i64 8, ptr %6) #3
  br label %65

65:                                               ; preds = %64, %20, %12
  %66 = load i1, ptr %3, align 1
  ret i1 %66
}