; Function Attrs: mustprogress nofree norecurse nosync nounwind willreturn memory(read, inaccessiblemem: none) uwtable
define hidden noundef zeroext i1 @_ZNK12mpfx_manager8is_int64ERK4mpfx(ptr noundef nonnull readonly align 8 captures(none) dereferenceable(85) %0, ptr noundef nonnull readonly align 4 captures(none) dereferenceable(4) %1) local_unnamed_addr #10 align 2 {
  %3 = getelementptr inbounds nuw i8, ptr %0, i64 16
  %4 = load ptr, ptr %3, align 8, !tbaa !3
  %5 = load i32, ptr %1, align 4
  %6 = lshr i32 %5, 1
  %7 = getelementptr inbounds nuw i8, ptr %0, i64 8
  %8 = load i32, ptr %7, align 8, !tbaa !19
  %9 = mul i32 %6, %8
  %10 = zext i32 %9 to i64
  %11 = getelementptr inbounds nuw i32, ptr %4, i64 %10
  %12 = getelementptr inbounds nuw i8, ptr %0, i64 4
  %13 = load i32, ptr %12, align 4, !tbaa !18
  %.not910.i = icmp eq i32 %13, 0
  br i1 %.not910.i, label %.loopexit, label %.lr.ph.preheader.i

.lr.ph.preheader.i:                               ; preds = %2
  %wide.trip.count.i = zext i32 %13 to i64
  br label %.lr.ph.i

14:                                               ; preds = %.lr.ph.i
  %indvars.iv.next.i = add nuw nsw i64 %indvars.iv.i, 1
  %exitcond.not.i = icmp eq i64 %indvars.iv.next.i, %wide.trip.count.i
  br i1 %exitcond.not.i, label %.loopexit, label %.lr.ph.i, !llvm.loop !39

.lr.ph.i:                                         ; preds = %14, %.lr.ph.preheader.i
  %indvars.iv.i = phi i64 [ 0, %.lr.ph.preheader.i ], [ %indvars.iv.next.i, %14 ]
  %15 = getelementptr inbounds nuw i32, ptr %11, i64 %indvars.iv.i
  %16 = load i32, ptr %15, align 4, !tbaa !22
  %.not.i = icmp eq i32 %16, 0
  br i1 %.not.i, label %14, label %_ZNK12mpfx_manager6is_intERK4mpfx.exit

.loopexit:                                        ; preds = %14, %2
  %17 = icmp ult i32 %5, 2
  %18 = load i32, ptr %0, align 8
  %19 = icmp ult i32 %18, 2
  %or.cond = select i1 %17, i1 true, i1 %19
  br i1 %or.cond, label %_ZNK12mpfx_manager6is_intERK4mpfx.exit, label %20

20:                                               ; preds = %.loopexit
  %21 = zext i32 %13 to i64
  %22 = getelementptr inbounds nuw i32, ptr %11, i64 %21
  %23 = getelementptr inbounds nuw i8, ptr %22, i64 4
  %24 = load i32, ptr %23, align 4, !tbaa !22
  %25 = icmp sgt i32 %24, -1
  br i1 %25, label %30, label %26

26:                                               ; preds = %20
  %27 = icmp eq i32 %24, -2147483648
  %28 = and i32 %5, 1
  %29 = icmp ne i32 %28, 0
  %or.cond20 = select i1 %27, i1 %29, i1 false
  br i1 %or.cond20, label %30, label %_ZNK12mpfx_manager6is_intERK4mpfx.exit

30:                                               ; preds = %26, %20
  %.not1622 = icmp ult i32 %18, 3
  br i1 %.not1622, label %_ZNK12mpfx_manager6is_intERK4mpfx.exit, label %.lr.ph.preheader

.lr.ph.preheader:                                 ; preds = %30
  %wide.trip.count = zext i32 %18 to i64
  br label %.lr.ph

.lr.ph:                                           ; preds = %.lr.ph, %.lr.ph.preheader
  %indvars.iv = phi i64 [ 2, %.lr.ph.preheader ], [ %indvars.iv.next, %.lr.ph ]
  %31 = getelementptr inbounds nuw i32, ptr %22, i64 %indvars.iv
  %32 = load i32, ptr %31, align 4, !tbaa !22
  %.not = icmp eq i32 %32, 0
  %indvars.iv.next = add nuw nsw i64 %indvars.iv, 1
  %exitcond.not = icmp ne i64 %indvars.iv.next, %wide.trip.count
  %or.cond30.not = select i1 %.not, i1 %exitcond.not, i1 false
  br i1 %or.cond30.not, label %.lr.ph, label %_ZNK12mpfx_manager6is_intERK4mpfx.exit, !llvm.loop !40

_ZNK12mpfx_manager6is_intERK4mpfx.exit:           ; preds = %.lr.ph.i, %.lr.ph, %30, %26, %.loopexit
  %.014 = phi i1 [ true, %.loopexit ], [ false, %26 ], [ true, %30 ], [ %.not, %.lr.ph ], [ false, %.lr.ph.i ]
  ret i1 %.014
}